target datalayout = "e-m:e-p270:32:32-p271:32:32-p272:64:64-i64:64-i128:128-f80:128-n8:16:32:64-S128"
target triple = "x86_64-pc-linux-gnu"

@.str.14 = private unnamed_addr constant [30 x i8] c"../openssl/test/ocspapitest.c\00", align 1
@certstr = internal global ptr null, align 8
@.str.41 = private unnamed_addr constant [37 x i8] c"certbio = BIO_new_file(certstr, \22r\22)\00", align 1
@.str.42 = private unnamed_addr constant [2 x i8] c"r\00", align 1
@.str.44 = private unnamed_addr constant [5 x i8] c"cert\00", align 1
@test_ocsp_url_svcloc_new.urls = internal global [3 x ptr] [ptr @.str.47, ptr @.str.48, ptr null], align 16
@.str.49 = private unnamed_addr constant [18 x i8] c"get_cert(&issuer)\00", align 1
@.str.50 = private unnamed_addr constant [4 x i8] c"ext\00", align 1

; Function Attrs: nounwind uwtable
define internal i32 @get_cert(ptr noundef %0) #0 {
  %2 = alloca i32, align 4
  %3 = alloca ptr, align 8
  %4 = alloca ptr, align 8
  %5 = alloca ptr, align 8
  %6 = alloca i32, align 4
  store ptr %0, ptr %3, align 8, !tbaa !33
  call void @llvm.lifetime.start.p0(i64 8, ptr %4) #7
  call void @llvm.lifetime.start.p0(i64 8, ptr %5) #7
  store ptr null, ptr %5, align 8, !tbaa !11
  %7 = load ptr, ptr @certstr, align 8, !tbaa !4
  %8 = call ptr @BIO_new_file(ptr noundef %7, ptr noundef @.str.42)
  store ptr %8, ptr %4, align 8, !tbaa !37
  %9 = call i32 @test_ptr(ptr noundef @.str.14, i32 noundef 55, ptr noundef @.str.41, ptr noundef %8)
  %10 = icmp ne i32 %9, 0
  br i1 %10, label %12, label %11

11:                                               ; preds = %1
  store i32 0, ptr %2, align 4
  store i32 1, ptr %6, align 4
  br label %26

12:                                               ; preds = %1
  %13 = load ptr, ptr %4, align 8, !tbaa !37
  %14 = call ptr @PEM_read_bio_X509(ptr noundef %13, ptr noundef null, ptr noundef null, ptr noundef null)
  store ptr %14, ptr %5, align 8, !tbaa !11
  %15 = load ptr, ptr %4, align 8, !tbaa !37
  %16 = call i32 @BIO_free(ptr noundef %15)
  %17 = load ptr, ptr %5, align 8, !tbaa !11
  %18 = call i32 @test_ptr(ptr noundef @.str.14, i32 noundef 59, ptr noundef @.str.44, ptr noundef %17)
  %19 = icmp ne i32 %18, 0
  br i1 %19, label %21, label %20

20:                                               ; preds = %12
  br label %24

21:                                               ; preds = %12
  %22 = load ptr, ptr %5, align 8, !tbaa !11
  %23 = load ptr, ptr %3, align 8, !tbaa !33
  store ptr %22, ptr %23, align 8, !tbaa !11
  store i32 1, ptr %2, align 4
  store i32 1, ptr %6, align 4
  br label %26

24:                                               ; preds = %20
  %25 = load ptr, ptr %5, align 8, !tbaa !11
  call void @X509_free(ptr noundef %25)
  store i32 0, ptr %2, align 4
  store i32 1, ptr %6, align 4
  br label %26

26:                                               ; preds = %24, %21, %11
  call void @llvm.lifetime.end.p0(i64 8, ptr %5) #7
  call void @llvm.lifetime.end.p0(i64 8, ptr %4) #7
  %27 = load i32, ptr %2, align 4
  ret i32 %27
}

; Function Attrs: nounwind uwtable
define internal i32 @test_ocsp_url_svcloc_new() #0 {
  %1 = alloca ptr, align 8
  %2 = alloca ptr, align 8
  %3 = alloca i32, align 4
  call void @llvm.lifetime.start.p0(i64 8, ptr %1) #7
  store ptr null, ptr %1, align 8, !tbaa !11
  call void @llvm.lifetime.start.p0(i64 8, ptr %2) #7
  store ptr null, ptr %2, align 8, !tbaa !25
  call void @llvm.lifetime.start.p0(i64 4, ptr %3) #7
  store i32 0, ptr %3, align 4, !tbaa !17
  %4 = call i32 @get_cert(ptr noundef %1)
  %5 = icmp ne i32 %4, 0
  %6 = zext i1 %5 to i32
  %7 = call i32 @test_true(ptr noundef @.str.14, i32 noundef 199, ptr noundef @.str.49, i32 noundef %6)
  %8 = icmp ne i32 %7, 0
  br i1 %8, label %10, label %9

9:                                                ; preds = %0
  br label %20

10:                                               ; preds = %0
  %11 = load ptr, ptr %1, align 8, !tbaa !11
  %12 = call ptr @X509_get_issuer_name(ptr noundef %11)
  %13 = call ptr @OCSP_url_svcloc_new(ptr noundef %12, ptr noundef @test_ocsp_url_svcloc_new.urls)
  store ptr %13, ptr %2, align 8, !tbaa !25
  %14 = load ptr, ptr %2, align 8, !tbaa !25
  %15 = call i32 @test_ptr(ptr noundef @.str.14, i32 noundef 206, ptr noundef @.str.50, ptr noundef %14)
  %16 = icmp ne i32 %15, 0
  br i1 %16, label %18, label %17

17:                                               ; preds = %10
  br label %20

18:                                               ; preds = %10
  %19 = load ptr, ptr %2, align 8, !tbaa !25
  call void @X509_EXTENSION_free(ptr noundef %19)
  store i32 1, ptr %3, align 4, !tbaa !17
  br label %20

20:                                               ; preds = %18, %17, %9
  %21 = load ptr, ptr %1, align 8, !tbaa !11
  call void @X509_free(ptr noundef %21)
  %22 = load i32, ptr %3, align 4, !tbaa !17
  call void @llvm.lifetime.end.p0(i64 4, ptr %3) #7
  call void @llvm.lifetime.end.p0(i64 8, ptr %2) #7
  call void @llvm.lifetime.end.p0(i64 8, ptr %1) #7
  ret i32 %22
}