; Function Attrs: nounwind uwtable
define internal range(i32 0, 2) i32 @test_ocsp_url_svcloc_new() #1 {
  %1 = load ptr, ptr @certstr, align 8, !tbaa !4
  %2 = tail call ptr @BIO_new_file(ptr noundef %1, ptr noundef nonnull @.str.42) #7
  %3 = tail call i32 @test_ptr(ptr noundef nonnull @.str.14, i32 noundef 55, ptr noundef nonnull @.str.41, ptr noundef %2) #7
  %.not.i = icmp eq i32 %3, 0
  br i1 %.not.i, label %get_cert.exit, label %4

4:                                                ; preds = %0
  %5 = tail call ptr @PEM_read_bio_X509(ptr noundef %2, ptr noundef null, ptr noundef null, ptr noundef null) #7
  %6 = tail call i32 @BIO_free(ptr noundef %2) #7
  %7 = tail call i32 @test_ptr(ptr noundef nonnull @.str.14, i32 noundef 59, ptr noundef nonnull @.str.44, ptr noundef %5) #7
  %.not6.i = icmp eq i32 %7, 0
  br i1 %.not6.i, label %8, label %get_cert.exit

8:                                                ; preds = %4
  tail call void @X509_free(ptr noundef %5) #7
  br label %get_cert.exit

get_cert.exit:                                    ; preds = %4, %0, %8
  %.04 = phi ptr [ null, %0 ], [ null, %8 ], [ %5, %4 ]
  %.0.i = phi i32 [ 0, %0 ], [ 0, %8 ], [ 1, %4 ]
  %9 = tail call i32 @test_true(ptr noundef nonnull @.str.14, i32 noundef 199, ptr noundef nonnull @.str.49, i32 noundef %.0.i) #7
  %.not = icmp eq i32 %9, 0
  br i1 %.not, label %15, label %10

10:                                               ; preds = %get_cert.exit
  %11 = tail call ptr @X509_get_issuer_name(ptr noundef %.04) #7
  %12 = tail call ptr @OCSP_url_svcloc_new(ptr noundef %11, ptr noundef nonnull @test_ocsp_url_svcloc_new.urls) #7
  %13 = tail call i32 @test_ptr(ptr noundef nonnull @.str.14, i32 noundef 206, ptr noundef nonnull @.str.50, ptr noundef %12) #7
  %.not2 = icmp eq i32 %13, 0
  br i1 %.not2, label %15, label %14

14:                                               ; preds = %10
  tail call void @X509_EXTENSION_free(ptr noundef %12) #7
  br label %15

15:                                               ; preds = %10, %get_cert.exit, %14
  %.0 = phi i32 [ 1, %14 ], [ 0, %10 ], [ 0, %get_cert.exit ]
  tail call void @X509_free(ptr noundef %.04) #7
  ret i32 %.0
}